; Function Attrs: mustprogress uwtable
define internal void @_ZNK9grpc_core12_GLOBAL__N_127UnixAbstractResolverFactory14CreateResolverENS_12ResolverArgsE(ptr noalias nocapture writeonly sret(%"class.std::unique_ptr.83") align 8 %agg.result, ptr nocapture nonnull readnone align 8 %this, ptr noundef nonnull %args) unnamed_addr #3 align 2 personality ptr @__gxx_personality_v0 {
entry:
  %agg.tmp = alloca %"struct.grpc_core::ResolverArgs", align 8
  call void @_ZN9grpc_core3URIC2EOS0_(ptr noundef nonnull align 8 dereferenceable(200) %agg.tmp, ptr noundef nonnull align 8 dereferenceable(200) %args) #16
  %args.i = getelementptr inbounds i8, ptr %agg.tmp, i64 200
  %args3.i = getelementptr inbounds i8, ptr %args, i64 200
  call void @_ZN9grpc_core11ChannelArgsC1EOS0_(ptr noundef nonnull align 8 dereferenceable(8) %args.i, ptr noundef nonnull align 8 dereferenceable(8) %args3.i) #16
  %pollset_set.i = getelementptr inbounds i8, ptr %agg.tmp, i64 208
  %pollset_set4.i = getelementptr inbounds i8, ptr %args, i64 208
  %work_serializer5.i = getelementptr inbounds i8, ptr %args, i64 216
  %0 = load <2 x ptr>, ptr %pollset_set4.i, align 8
  store <2 x ptr> %0, ptr %pollset_set.i, align 8
  %_M_refcount.i.i.i = getelementptr inbounds i8, ptr %agg.tmp, i64 224
  %_M_refcount4.i.i.i = getelementptr inbounds i8, ptr %args, i64 224
  %1 = load ptr, ptr %_M_refcount4.i.i.i, align 8
  store ptr null, ptr %_M_refcount4.i.i.i, align 8
  store ptr %1, ptr %_M_refcount.i.i.i, align 8
  store ptr null, ptr %work_serializer5.i, align 8
  %result_handler.i = getelementptr inbounds i8, ptr %agg.tmp, i64 232
  %result_handler6.i = getelementptr inbounds i8, ptr %args, i64 232
  %2 = load i64, ptr %result_handler6.i, align 8
  store i64 %2, ptr %result_handler.i, align 8
  store ptr null, ptr %result_handler6.i, align 8
  invoke fastcc void @_ZN9grpc_core12_GLOBAL__N_122CreateSockaddrResolverENS_12ResolverArgsEPFbRKNS_3URIEP21grpc_resolved_addressE(ptr noalias align 8 %agg.result, ptr noundef nonnull %agg.tmp, ptr noundef nonnull @_Z24grpc_parse_unix_abstractRKN9grpc_core3URIEP21grpc_resolved_address)
          to label %invoke.cont unwind label %lpad

invoke.cont:                                      ; preds = %entry
  call void @_ZN9grpc_core12ResolverArgsD2Ev(ptr noundef nonnull align 8 dereferenceable(240) %agg.tmp) #16
  ret void

lpad:                                             ; preds = %entry
  %3 = landingpad { ptr, i32 }
          cleanup
  call void @_ZN9grpc_core12ResolverArgsD2Ev(ptr noundef nonnull align 8 dereferenceable(240) %agg.tmp) #16
  resume { ptr, i32 } %3
}